; Function Attrs: mustprogress uwtable
define dso_local void @_ZN4i18n12phonenumbers15PhoneNumberDescC2EPN6google8protobuf5ArenaE(ptr noundef nonnull align 8 dereferenceable(72) %0, ptr noundef %1) unnamed_addr #3 align 2 personality ptr @__gxx_personality_v0 {
  %3 = getelementptr inbounds i8, ptr %0, i64 8
  store ptr %1, ptr %3, align 8
  store ptr getelementptr inbounds ({ [16 x ptr] }, ptr @_ZTVN4i18n12phonenumbers15PhoneNumberDescE, i64 0, i32 0, i64 2), ptr %0, align 8
  %4 = getelementptr inbounds i8, ptr %0, i64 16
  store i32 0, ptr %4, align 8
  %5 = getelementptr inbounds i8, ptr %0, i64 20
  store i32 0, ptr %5, align 4
  %6 = getelementptr inbounds i8, ptr %0, i64 24
  tail call void @_ZN6google8protobuf13RepeatedFieldIiEC1EPNS0_5ArenaE(ptr noundef nonnull align 8 dereferenceable(16) %6, ptr noundef %1)
  %7 = getelementptr inbounds i8, ptr %0, i64 40
  invoke void @_ZN6google8protobuf13RepeatedFieldIiEC1EPNS0_5ArenaE(ptr noundef nonnull align 8 dereferenceable(16) %7, ptr noundef %1)
          to label %8 unwind label %14

8:                                                ; preds = %2
  %9 = load atomic i32, ptr @scc_info_PhoneNumberDesc_phonemetadata_2eproto acquire, align 8
  %.not.i.i = icmp eq i32 %9, 0
  br i1 %.not.i.i, label %11, label %10

10:                                               ; preds = %8
  invoke void @_ZN6google8protobuf8internal11InitSCCImplEPNS1_11SCCInfoBaseE(ptr noundef nonnull @scc_info_PhoneNumberDesc_phonemetadata_2eproto)
          to label %11 unwind label %16

11:                                               ; preds = %8, %10
  %12 = getelementptr inbounds i8, ptr %0, i64 56
  store ptr @_ZN6google8protobuf8internal26fixed_address_empty_stringB5cxx11E, ptr %12, align 8
  %13 = getelementptr inbounds i8, ptr %0, i64 64
  store ptr @_ZN6google8protobuf8internal26fixed_address_empty_stringB5cxx11E, ptr %13, align 8
  ret void

14:                                               ; preds = %2
  %15 = landingpad { ptr, i32 }
          cleanup
  br label %18

16:                                               ; preds = %10
  %17 = landingpad { ptr, i32 }
          cleanup
  tail call void @_ZN6google8protobuf13RepeatedFieldIiED1Ev(ptr noundef nonnull align 8 dereferenceable(16) %7) #21
  br label %18

18:                                               ; preds = %16, %14
  %.pn = phi { ptr, i32 } [ %17, %16 ], [ %15, %14 ]
  tail call void @_ZN6google8protobuf13RepeatedFieldIiED1Ev(ptr noundef nonnull align 8 dereferenceable(16) %6) #21
  resume { ptr, i32 } %.pn
}